target datalayout = "e-m:e-p270:32:32-p271:32:32-p272:64:64-i64:64-i128:128-f80:128-n8:16:32:64-S128"
target triple = "x86_64-pc-linux-gnu"

%struct.PJconsts = type { ptr, ptr, ptr, ptr, ptr, ptr, ptr, ptr, ptr, ptr, ptr, ptr, i32, ptr, ptr, ptr, ptr, ptr, ptr, ptr, ptr, double, double, double, double, double, double, double, double, double, double, double, double, double, double, double, double, double, double, double, double, double, double, i32, i32, i32, i32, i32, i32, i32, i32, i32, i32, i32, ptr, ptr, ptr, ptr, ptr, ptr, double, double, double, double, double, double, double, double, double, double, double, i32, [7 x double], i32, ptr, ptr, double, double, i32, [4 x i8], %"class.std::shared_ptr", i8, double, i8, %"class.std::__cxx11::basic_string", %"class.std::__cxx11::basic_string", %"class.std::__cxx11::basic_string", i8, %"class.std::vector", i32, %"class.std::vector.3", i32, i8, i8, i8, ptr }
%"class.std::shared_ptr" = type { %"class.std::__shared_ptr" }
%"class.std::__shared_ptr" = type { ptr, %"class.std::__shared_count" }
%"class.std::__shared_count" = type { ptr }
%"class.std::__cxx11::basic_string" = type { %"struct.std::__cxx11::basic_string<char>::_Alloc_hider", i64, %union.anon }
%"struct.std::__cxx11::basic_string<char>::_Alloc_hider" = type { ptr }
%union.anon = type { i64, [8 x i8] }
%"class.std::vector" = type { %"struct.std::_Vector_base" }
%"struct.std::_Vector_base" = type { %"struct.std::_Vector_base<osgeo::proj::operation::GridDescription, std::allocator<osgeo::proj::operation::GridDescription>>::_Vector_impl" }
%"struct.std::_Vector_base<osgeo::proj::operation::GridDescription, std::allocator<osgeo::proj::operation::GridDescription>>::_Vector_impl" = type { %"struct.std::_Vector_base<osgeo::proj::operation::GridDescription, std::allocator<osgeo::proj::operation::GridDescription>>::_Vector_impl_data" }
%"struct.std::_Vector_base<osgeo::proj::operation::GridDescription, std::allocator<osgeo::proj::operation::GridDescription>>::_Vector_impl_data" = type { ptr, ptr, ptr }
%"class.std::vector.3" = type { %"struct.std::_Vector_base.4" }
%"struct.std::_Vector_base.4" = type { %"struct.std::_Vector_base<PJCoordOperation, std::allocator<PJCoordOperation>>::_Vector_impl" }
%"struct.std::_Vector_base<PJCoordOperation, std::allocator<PJCoordOperation>>::_Vector_impl" = type { %"struct.std::_Vector_base<PJCoordOperation, std::allocator<PJCoordOperation>>::_Vector_impl_data" }
%"struct.std::_Vector_base<PJCoordOperation, std::allocator<PJCoordOperation>>::_Vector_impl_data" = type { ptr, ptr, ptr }
%"struct.(anonymous namespace)::pj_lcca_data" = type { ptr, double, double, double, double }
%struct.PJ_LP = type { double, double }
%struct.PJ_XY = type { double, double }

; Function Attrs: mustprogress nounwind uwtable
define internal noundef double @_ZL2fSdd(double noundef %0, double noundef %1) #7 {
  %3 = alloca double, align 8
  %4 = alloca double, align 8
  store double %0, ptr %3, align 8, !tbaa !52
  store double %1, ptr %4, align 8, !tbaa !52
  %5 = load double, ptr %3, align 8, !tbaa !52
  %6 = load double, ptr %3, align 8, !tbaa !52
  %7 = load double, ptr %3, align 8, !tbaa !52
  %8 = fmul double %6, %7
  %9 = load double, ptr %4, align 8, !tbaa !52
  %10 = call double @llvm.fmuladd.f64(double %8, double %9, double 1.000000e+00)
  %11 = fmul double %5, %10
  ret double %11
}

; Function Attrs: mustprogress uwtable
define internal { double, double } @_ZL14lcca_e_forward5PJ_LPP8PJconsts(double %0, double %1, ptr noundef %2) #0 {
  %4 = alloca %struct.PJ_XY, align 8
  %5 = alloca %struct.PJ_LP, align 8
  %6 = alloca ptr, align 8
  %7 = alloca ptr, align 8
  %8 = alloca double, align 8
  %9 = alloca double, align 8
  %10 = alloca double, align 8
  %11 = alloca double, align 8
  %12 = getelementptr inbounds nuw { double, double }, ptr %5, i32 0, i32 0
  store double %0, ptr %12, align 8
  %13 = getelementptr inbounds nuw { double, double }, ptr %5, i32 0, i32 1
  store double %1, ptr %13, align 8
  store ptr %2, ptr %6, align 8, !tbaa !3
  call void @llvm.memset.p0.i64(ptr align 8 %4, i8 0, i64 16, i1 false)
  call void @llvm.lifetime.start.p0(i64 8, ptr %7) #8
  %14 = load ptr, ptr %6, align 8, !tbaa !3
  %15 = getelementptr inbounds nuw %struct.PJconsts, ptr %14, i32 0, i32 11
  %16 = load ptr, ptr %15, align 8, !tbaa !43
  store ptr %16, ptr %7, align 8, !tbaa !41
  call void @llvm.lifetime.start.p0(i64 8, ptr %8) #8
  call void @llvm.lifetime.start.p0(i64 8, ptr %9) #8
  call void @llvm.lifetime.start.p0(i64 8, ptr %10) #8
  %17 = getelementptr inbounds nuw %struct.PJ_LP, ptr %5, i32 0, i32 1
  %18 = load double, ptr %17, align 8, !tbaa !68
  %19 = getelementptr inbounds nuw %struct.PJ_LP, ptr %5, i32 0, i32 1
  %20 = load double, ptr %19, align 8, !tbaa !68
  %21 = call double @sin(double noundef %20) #8, !tbaa !49
  %22 = getelementptr inbounds nuw %struct.PJ_LP, ptr %5, i32 0, i32 1
  %23 = load double, ptr %22, align 8, !tbaa !68
  %24 = call double @cos(double noundef %23) #8, !tbaa !49
  %25 = load ptr, ptr %7, align 8, !tbaa !41
  %26 = getelementptr inbounds nuw %"struct.(anonymous namespace)::pj_lcca_data", ptr %25, i32 0, i32 0
  %27 = load ptr, ptr %26, align 8, !tbaa !45
  %28 = call noundef double @_Z7pj_mlfndddPKd(double noundef %18, double noundef %21, double noundef %24, ptr noundef %27)
  %29 = load ptr, ptr %7, align 8, !tbaa !41
  %30 = getelementptr inbounds nuw %"struct.(anonymous namespace)::pj_lcca_data", ptr %29, i32 0, i32 3
  %31 = load double, ptr %30, align 8, !tbaa !51
  %32 = fsub double %28, %31
  store double %32, ptr %8, align 8, !tbaa !52
  %33 = load double, ptr %8, align 8, !tbaa !52
  %34 = load ptr, ptr %7, align 8, !tbaa !41
  %35 = getelementptr inbounds nuw %"struct.(anonymous namespace)::pj_lcca_data", ptr %34, i32 0, i32 4
  %36 = load double, ptr %35, align 8, !tbaa !56
  %37 = call noundef double @_ZL2fSdd(double noundef %33, double noundef %36)
  store double %37, ptr %10, align 8, !tbaa !52
  %38 = load ptr, ptr %7, align 8, !tbaa !41
  %39 = getelementptr inbounds nuw %"struct.(anonymous namespace)::pj_lcca_data", ptr %38, i32 0, i32 1
  %40 = load double, ptr %39, align 8, !tbaa !55
  %41 = load double, ptr %10, align 8, !tbaa !52
  %42 = fsub double %40, %41
  store double %42, ptr %9, align 8, !tbaa !52
  call void @llvm.lifetime.start.p0(i64 8, ptr %11) #8
  %43 = getelementptr inbounds nuw %struct.PJ_LP, ptr %5, i32 0, i32 0
  %44 = load double, ptr %43, align 8, !tbaa !64
  %45 = load ptr, ptr %7, align 8, !tbaa !41
  %46 = getelementptr inbounds nuw %"struct.(anonymous namespace)::pj_lcca_data", ptr %45, i32 0, i32 2
  %47 = load double, ptr %46, align 8, !tbaa !50
  %48 = fmul double %44, %47
  store double %48, ptr %11, align 8, !tbaa !52
  %49 = load ptr, ptr %6, align 8, !tbaa !3
  %50 = getelementptr inbounds nuw %struct.PJconsts, ptr %49, i32 0, i32 66
  %51 = load double, ptr %50, align 8, !tbaa !60
  %52 = load double, ptr %9, align 8, !tbaa !52
  %53 = load double, ptr %11, align 8, !tbaa !52
  %54 = call double @sin(double noundef %53) #8, !tbaa !49
  %55 = fmul double %52, %54
  %56 = fmul double %51, %55
  %57 = getelementptr inbounds nuw %struct.PJ_XY, ptr %4, i32 0, i32 0
  store double %56, ptr %57, align 8, !tbaa !61
  %58 = load ptr, ptr %6, align 8, !tbaa !3
  %59 = getelementptr inbounds nuw %struct.PJconsts, ptr %58, i32 0, i32 66
  %60 = load double, ptr %59, align 8, !tbaa !60
  %61 = load ptr, ptr %7, align 8, !tbaa !41
  %62 = getelementptr inbounds nuw %"struct.(anonymous namespace)::pj_lcca_data", ptr %61, i32 0, i32 1
  %63 = load double, ptr %62, align 8, !tbaa !55
  %64 = load double, ptr %9, align 8, !tbaa !52
  %65 = load double, ptr %11, align 8, !tbaa !52
  %66 = call double @cos(double noundef %65) #8, !tbaa !49
  %67 = fneg double %64
  %68 = call double @llvm.fmuladd.f64(double %67, double %66, double %63)
  %69 = fmul double %60, %68
  %70 = getelementptr inbounds nuw %struct.PJ_XY, ptr %4, i32 0, i32 1
  store double %69, ptr %70, align 8, !tbaa !63
  call void @llvm.lifetime.end.p0(i64 8, ptr %11) #8
  call void @llvm.lifetime.end.p0(i64 8, ptr %10) #8
  call void @llvm.lifetime.end.p0(i64 8, ptr %9) #8
  call void @llvm.lifetime.end.p0(i64 8, ptr %8) #8
  call void @llvm.lifetime.end.p0(i64 8, ptr %7) #8
  %71 = load { double, double }, ptr %4, align 8
  ret { double, double } %71
}