; Function Attrs: mustprogress uwtable
define internal { double, double } @_ZL14lcca_e_forward5PJ_LPP8PJconsts(double %0, double %1, ptr noundef readonly captures(none) %2) #0 {
  %4 = getelementptr inbounds nuw i8, ptr %2, i64 88
  %5 = load ptr, ptr %4, align 8, !tbaa !40
  %6 = tail call double @sin(double noundef %1) #7, !tbaa !46
  %7 = tail call double @cos(double noundef %1) #7, !tbaa !46
  %8 = load ptr, ptr %5, align 8, !tbaa !42
  %9 = tail call noundef double @_Z7pj_mlfndddPKd(double noundef %1, double noundef %6, double noundef %7, ptr noundef %8)
  %10 = getelementptr inbounds nuw i8, ptr %5, i64 24
  %11 = load double, ptr %10, align 8, !tbaa !48
  %12 = fsub double %9, %11
  %13 = getelementptr inbounds nuw i8, ptr %5, i64 32
  %14 = load double, ptr %13, align 8, !tbaa !52
  %15 = fmul double %12, %12
  %16 = tail call double @llvm.fmuladd.f64(double %15, double %14, double 1.000000e+00)
  %17 = fmul double %12, %16
  %18 = getelementptr inbounds nuw i8, ptr %5, i64 8
  %19 = load double, ptr %18, align 8, !tbaa !51
  %20 = fsub double %19, %17
  %21 = getelementptr inbounds nuw i8, ptr %5, i64 16
  %22 = load double, ptr %21, align 8, !tbaa !47
  %23 = fmul double %0, %22
  %24 = getelementptr inbounds nuw i8, ptr %2, i64 488
  %25 = load double, ptr %24, align 8, !tbaa !56
  %26 = tail call double @sin(double noundef %23) #7, !tbaa !46
  %27 = fmul double %20, %26
  %28 = fmul double %25, %27
  %29 = tail call double @cos(double noundef %23) #7, !tbaa !46
  %30 = fneg double %20
  %31 = tail call double @llvm.fmuladd.f64(double %30, double %29, double %19)
  %32 = fmul double %25, %31
  %.fca.0.insert = insertvalue { double, double } poison, double %28, 0
  %.fca.1.insert = insertvalue { double, double } %.fca.0.insert, double %32, 1
  ret { double, double } %.fca.1.insert
}